target datalayout = "e-m:e-p270:32:32-p271:32:32-p272:64:64-i64:64-i128:128-f80:128-n8:16:32:64-S128"
target triple = "x86_64-pc-linux-gnu"

%struct.AVFilterContext = type { ptr, ptr, ptr, ptr, ptr, i32, ptr, ptr, i32, ptr, ptr, i32, i32, ptr, ptr, ptr, ptr, i32, ptr, i32, i32 }
%struct.MultiplyContext = type { ptr, float, float, i32, [4 x i32], i32, %struct.FFFrameSync }
%struct.FFFrameSync = type { ptr, ptr, i32, %struct.AVRational, i64, ptr, ptr, i32, i32, i8, i8, ptr, i32, i32, i32, i32 }
%struct.AVRational = type { i32, i32 }
%struct.AVChannelLayout = type { i32, i32, %union.anon.1, ptr }
%union.anon.1 = type { i64 }
%struct.ThreadData = type { ptr, ptr, ptr }
%struct.AVFrame = type { [8 x ptr], [8 x i32], ptr, i32, i32, i32, i32, i32, %struct.AVRational, i64, i64, %struct.AVRational, i32, ptr, i32, i32, [8 x ptr], ptr, i32, ptr, i32, i32, i32, i32, i32, i32, i32, i64, ptr, i32, ptr, ptr, i64, i64, i64, i64, ptr, %struct.AVChannelLayout, i64 }

; Function Attrs: nounwind uwtable
define internal void @multiply(ptr noundef %0, ptr noundef %1, ptr noundef %2, float noundef %3, float noundef %4, i32 noundef %5) #2 {
  %7 = alloca ptr, align 8
  %8 = alloca ptr, align 8
  %9 = alloca ptr, align 8
  %10 = alloca float, align 4
  %11 = alloca float, align 4
  %12 = alloca i32, align 4
  %13 = alloca ptr, align 8
  %14 = alloca ptr, align 8
  %15 = alloca ptr, align 8
  %16 = alloca i32, align 4
  %17 = alloca float, align 4
  store ptr %0, ptr %7, align 8, !tbaa !87
  store ptr %1, ptr %8, align 8, !tbaa !87
  store ptr %2, ptr %9, align 8, !tbaa !87
  store float %3, ptr %10, align 4, !tbaa !80
  store float %4, ptr %11, align 4, !tbaa !80
  store i32 %5, ptr %12, align 4, !tbaa !42
  call void @llvm.lifetime.start.p0(i64 8, ptr %13) #8
  %18 = load ptr, ptr %7, align 8, !tbaa !87
  store ptr %18, ptr %13, align 8, !tbaa !92
  call void @llvm.lifetime.start.p0(i64 8, ptr %14) #8
  %19 = load ptr, ptr %8, align 8, !tbaa !87
  store ptr %19, ptr %14, align 8, !tbaa !92
  call void @llvm.lifetime.start.p0(i64 8, ptr %15) #8
  %20 = load ptr, ptr %9, align 8, !tbaa !87
  store ptr %20, ptr %15, align 8, !tbaa !92
  call void @llvm.lifetime.start.p0(i64 4, ptr %16) #8
  store i32 0, ptr %16, align 4, !tbaa !42
  br label %21

21:                                               ; preds = %47, %6
  %22 = load i32, ptr %16, align 4, !tbaa !42
  %23 = load i32, ptr %12, align 4, !tbaa !42
  %24 = icmp slt i32 %22, %23
  br i1 %24, label %26, label %25

25:                                               ; preds = %21
  call void @llvm.lifetime.end.p0(i64 4, ptr %16) #8
  br label %50

26:                                               ; preds = %21
  call void @llvm.lifetime.start.p0(i64 4, ptr %17) #8
  %27 = load ptr, ptr %14, align 8, !tbaa !92
  %28 = load i32, ptr %16, align 4, !tbaa !42
  %29 = sext i32 %28 to i64
  %30 = getelementptr inbounds float, ptr %27, i64 %29
  %31 = load float, ptr %30, align 4, !tbaa !80
  %32 = load float, ptr %11, align 4, !tbaa !80
  %33 = fadd nsz float %31, %32
  %34 = load float, ptr %10, align 4, !tbaa !80
  %35 = fmul nsz float %33, %34
  store float %35, ptr %17, align 4, !tbaa !80
  %36 = load ptr, ptr %13, align 8, !tbaa !92
  %37 = load i32, ptr %16, align 4, !tbaa !42
  %38 = sext i32 %37 to i64
  %39 = getelementptr inbounds float, ptr %36, i64 %38
  %40 = load float, ptr %39, align 4, !tbaa !80
  %41 = load float, ptr %17, align 4, !tbaa !80
  %42 = fmul nsz float %40, %41
  %43 = load ptr, ptr %15, align 8, !tbaa !92
  %44 = load i32, ptr %16, align 4, !tbaa !42
  %45 = sext i32 %44 to i64
  %46 = getelementptr inbounds float, ptr %43, i64 %45
  store float %42, ptr %46, align 4, !tbaa !80
  call void @llvm.lifetime.end.p0(i64 4, ptr %17) #8
  br label %47

47:                                               ; preds = %26
  %48 = load i32, ptr %16, align 4, !tbaa !42
  %49 = add nsw i32 %48, 1
  store i32 %49, ptr %16, align 4, !tbaa !42
  br label %21, !llvm.loop !94

50:                                               ; preds = %25
  call void @llvm.lifetime.end.p0(i64 8, ptr %15) #8
  call void @llvm.lifetime.end.p0(i64 8, ptr %14) #8
  call void @llvm.lifetime.end.p0(i64 8, ptr %13) #8
  ret void
}

; Function Attrs: nounwind uwtable
define internal i32 @multiply_slice(ptr noundef %0, ptr noundef %1, i32 noundef %2, i32 noundef %3) #2 {
  %5 = alloca ptr, align 8
  %6 = alloca ptr, align 8
  %7 = alloca i32, align 4
  %8 = alloca i32, align 4
  %9 = alloca ptr, align 8
  %10 = alloca float, align 4
  %11 = alloca float, align 4
  %12 = alloca ptr, align 8
  %13 = alloca i32, align 4
  %14 = alloca i32, align 4
  %15 = alloca i64, align 8
  %16 = alloca i64, align 8
  %17 = alloca i64, align 8
  %18 = alloca i32, align 4
  %19 = alloca i32, align 4
  %20 = alloca i32, align 4
  %21 = alloca i32, align 4
  %22 = alloca ptr, align 8
  %23 = alloca ptr, align 8
  %24 = alloca ptr, align 8
  %25 = alloca i32, align 4
  store ptr %0, ptr %5, align 8, !tbaa !4
  store ptr %1, ptr %6, align 8, !tbaa !78
  store i32 %2, ptr %7, align 4, !tbaa !42
  store i32 %3, ptr %8, align 4, !tbaa !42
  call void @llvm.lifetime.start.p0(i64 8, ptr %9) #8
  %26 = load ptr, ptr %5, align 8, !tbaa !4
  %27 = getelementptr inbounds nuw %struct.AVFilterContext, ptr %26, i32 0, i32 9
  %28 = load ptr, ptr %27, align 8, !tbaa !9
  store ptr %28, ptr %9, align 8, !tbaa !22
  call void @llvm.lifetime.start.p0(i64 4, ptr %10) #8
  %29 = load ptr, ptr %9, align 8, !tbaa !22
  %30 = getelementptr inbounds nuw %struct.MultiplyContext, ptr %29, i32 0, i32 1
  %31 = load float, ptr %30, align 8, !tbaa !79
  store float %31, ptr %10, align 4, !tbaa !80
  call void @llvm.lifetime.start.p0(i64 4, ptr %11) #8
  %32 = load ptr, ptr %9, align 8, !tbaa !22
  %33 = getelementptr inbounds nuw %struct.MultiplyContext, ptr %32, i32 0, i32 2
  %34 = load float, ptr %33, align 4, !tbaa !81
  store float %34, ptr %11, align 4, !tbaa !80
  call void @llvm.lifetime.start.p0(i64 8, ptr %12) #8
  %35 = load ptr, ptr %6, align 8, !tbaa !78
  store ptr %35, ptr %12, align 8, !tbaa !82
  call void @llvm.lifetime.start.p0(i64 4, ptr %13) #8
  store i32 0, ptr %13, align 4, !tbaa !42
  br label %36

36:                                               ; preds = %184, %4
  %37 = load i32, ptr %13, align 4, !tbaa !42
  %38 = load ptr, ptr %9, align 8, !tbaa !22
  %39 = getelementptr inbounds nuw %struct.MultiplyContext, ptr %38, i32 0, i32 5
  %40 = load i32, ptr %39, align 4, !tbaa !35
  %41 = icmp slt i32 %37, %40
  br i1 %41, label %43, label %42

42:                                               ; preds = %36
  store i32 2, ptr %14, align 4
  call void @llvm.lifetime.end.p0(i64 4, ptr %13) #8
  br label %187

43:                                               ; preds = %36
  call void @llvm.lifetime.start.p0(i64 8, ptr %15) #8
  %44 = load ptr, ptr %12, align 8, !tbaa !82
  %45 = getelementptr inbounds nuw %struct.ThreadData, ptr %44, i32 0, i32 0
  %46 = load ptr, ptr %45, align 8, !tbaa !68
  %47 = getelementptr inbounds nuw %struct.AVFrame, ptr %46, i32 0, i32 1
  %48 = load i32, ptr %13, align 4, !tbaa !42
  %49 = sext i32 %48 to i64
  %50 = getelementptr inbounds [8 x i32], ptr %47, i64 0, i64 %49
  %51 = load i32, ptr %50, align 4, !tbaa !42
  %52 = sext i32 %51 to i64
  store i64 %52, ptr %15, align 8, !tbaa !84
  call void @llvm.lifetime.start.p0(i64 8, ptr %16) #8
  %53 = load ptr, ptr %12, align 8, !tbaa !82
  %54 = getelementptr inbounds nuw %struct.ThreadData, ptr %53, i32 0, i32 1
  %55 = load ptr, ptr %54, align 8, !tbaa !70
  %56 = getelementptr inbounds nuw %struct.AVFrame, ptr %55, i32 0, i32 1
  %57 = load i32, ptr %13, align 4, !tbaa !42
  %58 = sext i32 %57 to i64
  %59 = getelementptr inbounds [8 x i32], ptr %56, i64 0, i64 %58
  %60 = load i32, ptr %59, align 4, !tbaa !42
  %61 = sext i32 %60 to i64
  store i64 %61, ptr %16, align 8, !tbaa !84
  call void @llvm.lifetime.start.p0(i64 8, ptr %17) #8
  %62 = load ptr, ptr %12, align 8, !tbaa !82
  %63 = getelementptr inbounds nuw %struct.ThreadData, ptr %62, i32 0, i32 2
  %64 = load ptr, ptr %63, align 8, !tbaa !71
  %65 = getelementptr inbounds nuw %struct.AVFrame, ptr %64, i32 0, i32 1
  %66 = load i32, ptr %13, align 4, !tbaa !42
  %67 = sext i32 %66 to i64
  %68 = getelementptr inbounds [8 x i32], ptr %65, i64 0, i64 %67
  %69 = load i32, ptr %68, align 4, !tbaa !42
  %70 = sext i32 %69 to i64
  store i64 %70, ptr %17, align 8, !tbaa !84
  call void @llvm.lifetime.start.p0(i64 4, ptr %18) #8
  %71 = load ptr, ptr %12, align 8, !tbaa !82
  %72 = getelementptr inbounds nuw %struct.ThreadData, ptr %71, i32 0, i32 0
  %73 = load ptr, ptr %72, align 8, !tbaa !68
  %74 = getelementptr inbounds nuw %struct.AVFrame, ptr %73, i32 0, i32 3
  %75 = load i32, ptr %74, align 8, !tbaa !85
  store i32 %75, ptr %18, align 4, !tbaa !42
  call void @llvm.lifetime.start.p0(i64 4, ptr %19) #8
  %76 = load ptr, ptr %12, align 8, !tbaa !82
  %77 = getelementptr inbounds nuw %struct.ThreadData, ptr %76, i32 0, i32 0
  %78 = load ptr, ptr %77, align 8, !tbaa !68
  %79 = getelementptr inbounds nuw %struct.AVFrame, ptr %78, i32 0, i32 4
  %80 = load i32, ptr %79, align 4, !tbaa !86
  store i32 %80, ptr %19, align 4, !tbaa !42
  call void @llvm.lifetime.start.p0(i64 4, ptr %20) #8
  %81 = load i32, ptr %19, align 4, !tbaa !42
  %82 = load i32, ptr %7, align 4, !tbaa !42
  %83 = mul nsw i32 %81, %82
  %84 = load i32, ptr %8, align 4, !tbaa !42
  %85 = sdiv i32 %83, %84
  store i32 %85, ptr %20, align 4, !tbaa !42
  call void @llvm.lifetime.start.p0(i64 4, ptr %21) #8
  %86 = load i32, ptr %19, align 4, !tbaa !42
  %87 = load i32, ptr %7, align 4, !tbaa !42
  %88 = add nsw i32 %87, 1
  %89 = mul nsw i32 %86, %88
  %90 = load i32, ptr %8, align 4, !tbaa !42
  %91 = sdiv i32 %89, %90
  store i32 %91, ptr %21, align 4, !tbaa !42
  call void @llvm.lifetime.start.p0(i64 8, ptr %22) #8
  %92 = load ptr, ptr %12, align 8, !tbaa !82
  %93 = getelementptr inbounds nuw %struct.ThreadData, ptr %92, i32 0, i32 0
  %94 = load ptr, ptr %93, align 8, !tbaa !68
  %95 = getelementptr inbounds nuw %struct.AVFrame, ptr %94, i32 0, i32 0
  %96 = load i32, ptr %13, align 4, !tbaa !42
  %97 = sext i32 %96 to i64
  %98 = getelementptr inbounds [8 x ptr], ptr %95, i64 0, i64 %97
  %99 = load ptr, ptr %98, align 8, !tbaa !87
  %100 = load i32, ptr %20, align 4, !tbaa !42
  %101 = sext i32 %100 to i64
  %102 = load i64, ptr %15, align 8, !tbaa !84
  %103 = mul nsw i64 %101, %102
  %104 = getelementptr inbounds i8, ptr %99, i64 %103
  store ptr %104, ptr %22, align 8, !tbaa !87
  call void @llvm.lifetime.start.p0(i64 8, ptr %23) #8
  %105 = load ptr, ptr %12, align 8, !tbaa !82
  %106 = getelementptr inbounds nuw %struct.ThreadData, ptr %105, i32 0, i32 1
  %107 = load ptr, ptr %106, align 8, !tbaa !70
  %108 = getelementptr inbounds nuw %struct.AVFrame, ptr %107, i32 0, i32 0
  %109 = load i32, ptr %13, align 4, !tbaa !42
  %110 = sext i32 %109 to i64
  %111 = getelementptr inbounds [8 x ptr], ptr %108, i64 0, i64 %110
  %112 = load ptr, ptr %111, align 8, !tbaa !87
  %113 = load i32, ptr %20, align 4, !tbaa !42
  %114 = sext i32 %113 to i64
  %115 = load i64, ptr %16, align 8, !tbaa !84
  %116 = mul nsw i64 %114, %115
  %117 = getelementptr inbounds i8, ptr %112, i64 %116
  store ptr %117, ptr %23, align 8, !tbaa !87
  call void @llvm.lifetime.start.p0(i64 8, ptr %24) #8
  %118 = load ptr, ptr %12, align 8, !tbaa !82
  %119 = getelementptr inbounds nuw %struct.ThreadData, ptr %118, i32 0, i32 2
  %120 = load ptr, ptr %119, align 8, !tbaa !71
  %121 = getelementptr inbounds nuw %struct.AVFrame, ptr %120, i32 0, i32 0
  %122 = load i32, ptr %13, align 4, !tbaa !42
  %123 = sext i32 %122 to i64
  %124 = getelementptr inbounds [8 x ptr], ptr %121, i64 0, i64 %123
  %125 = load ptr, ptr %124, align 8, !tbaa !87
  %126 = load i32, ptr %20, align 4, !tbaa !42
  %127 = sext i32 %126 to i64
  %128 = load i64, ptr %17, align 8, !tbaa !84
  %129 = mul nsw i64 %127, %128
  %130 = getelementptr inbounds i8, ptr %125, i64 %129
  store ptr %130, ptr %24, align 8, !tbaa !87
  %131 = load i32, ptr %13, align 4, !tbaa !42
  %132 = shl i32 1, %131
  %133 = load ptr, ptr %9, align 8, !tbaa !22
  %134 = getelementptr inbounds nuw %struct.MultiplyContext, ptr %133, i32 0, i32 3
  %135 = load i32, ptr %134, align 8, !tbaa !88
  %136 = and i32 %132, %135
  %137 = icmp ne i32 %136, 0
  br i1 %137, label %154, label %138

138:                                              ; preds = %43
  %139 = load ptr, ptr %24, align 8, !tbaa !87
  %140 = load i64, ptr %17, align 8, !tbaa !84
  %141 = trunc i64 %140 to i32
  %142 = load ptr, ptr %23, align 8, !tbaa !87
  %143 = load i64, ptr %16, align 8, !tbaa !84
  %144 = trunc i64 %143 to i32
  %145 = load ptr, ptr %9, align 8, !tbaa !22
  %146 = getelementptr inbounds nuw %struct.MultiplyContext, ptr %145, i32 0, i32 4
  %147 = load i32, ptr %13, align 4, !tbaa !42
  %148 = sext i32 %147 to i64
  %149 = getelementptr inbounds [4 x i32], ptr %146, i64 0, i64 %148
  %150 = load i32, ptr %149, align 4, !tbaa !42
  %151 = load i32, ptr %21, align 4, !tbaa !42
  %152 = load i32, ptr %20, align 4, !tbaa !42
  %153 = sub nsw i32 %151, %152
  call void @av_image_copy_plane(ptr noundef %139, i32 noundef %141, ptr noundef %142, i32 noundef %144, i32 noundef %150, i32 noundef %153)
  store i32 4, ptr %14, align 4
  br label %181

154:                                              ; preds = %43
  call void @llvm.lifetime.start.p0(i64 4, ptr %25) #8
  %155 = load i32, ptr %20, align 4, !tbaa !42
  store i32 %155, ptr %25, align 4, !tbaa !42
  br label %156

156:                                              ; preds = %177, %154
  %157 = load i32, ptr %25, align 4, !tbaa !42
  %158 = load i32, ptr %21, align 4, !tbaa !42
  %159 = icmp slt i32 %157, %158
  br i1 %159, label %161, label %160

160:                                              ; preds = %156
  store i32 5, ptr %14, align 4
  call void @llvm.lifetime.end.p0(i64 4, ptr %25) #8
  br label %180

161:                                              ; preds = %156
  %162 = load ptr, ptr %22, align 8, !tbaa !87
  %163 = load ptr, ptr %23, align 8, !tbaa !87
  %164 = load ptr, ptr %24, align 8, !tbaa !87
  %165 = load float, ptr %11, align 4, !tbaa !80
  %166 = load float, ptr %10, align 4, !tbaa !80
  %167 = load i32, ptr %18, align 4, !tbaa !42
  call void @multiply(ptr noundef %162, ptr noundef %163, ptr noundef %164, float noundef %165, float noundef %166, i32 noundef %167)
  %168 = load i64, ptr %17, align 8, !tbaa !84
  %169 = load ptr, ptr %24, align 8, !tbaa !87
  %170 = getelementptr inbounds i8, ptr %169, i64 %168
  store ptr %170, ptr %24, align 8, !tbaa !87
  %171 = load i64, ptr %15, align 8, !tbaa !84
  %172 = load ptr, ptr %22, align 8, !tbaa !87
  %173 = getelementptr inbounds i8, ptr %172, i64 %171
  store ptr %173, ptr %22, align 8, !tbaa !87
  %174 = load i64, ptr %16, align 8, !tbaa !84
  %175 = load ptr, ptr %23, align 8, !tbaa !87
  %176 = getelementptr inbounds i8, ptr %175, i64 %174
  store ptr %176, ptr %23, align 8, !tbaa !87
  br label %177

177:                                              ; preds = %161
  %178 = load i32, ptr %25, align 4, !tbaa !42
  %179 = add nsw i32 %178, 1
  store i32 %179, ptr %25, align 4, !tbaa !42
  br label %156, !llvm.loop !89

180:                                              ; preds = %160
  store i32 0, ptr %14, align 4
  br label %181

181:                                              ; preds = %180, %138
  call void @llvm.lifetime.end.p0(i64 8, ptr %24) #8
  call void @llvm.lifetime.end.p0(i64 8, ptr %23) #8
  call void @llvm.lifetime.end.p0(i64 8, ptr %22) #8
  call void @llvm.lifetime.end.p0(i64 4, ptr %21) #8
  call void @llvm.lifetime.end.p0(i64 4, ptr %20) #8
  call void @llvm.lifetime.end.p0(i64 4, ptr %19) #8
  call void @llvm.lifetime.end.p0(i64 4, ptr %18) #8
  call void @llvm.lifetime.end.p0(i64 8, ptr %17) #8
  call void @llvm.lifetime.end.p0(i64 8, ptr %16) #8
  call void @llvm.lifetime.end.p0(i64 8, ptr %15) #8
  %182 = load i32, ptr %14, align 4
  switch i32 %182, label %188 [
    i32 0, label %183
    i32 4, label %184
  ]

183:                                              ; preds = %181
  br label %184

184:                                              ; preds = %183, %181
  %185 = load i32, ptr %13, align 4, !tbaa !42
  %186 = add nsw i32 %185, 1
  store i32 %186, ptr %13, align 4, !tbaa !42
  br label %36, !llvm.loop !91

187:                                              ; preds = %42
  store i32 1, ptr %14, align 4
  call void @llvm.lifetime.end.p0(i64 8, ptr %12) #8
  call void @llvm.lifetime.end.p0(i64 4, ptr %11) #8
  call void @llvm.lifetime.end.p0(i64 4, ptr %10) #8
  call void @llvm.lifetime.end.p0(i64 8, ptr %9) #8
  ret i32 0

188:                                              ; preds = %181
  unreachable
}