; Function Attrs: nounwind uwtable
define internal noundef i32 @multiply_slice(ptr noundef readonly captures(none) %0, ptr noundef readonly captures(none) %1, i32 noundef %2, i32 noundef %3) #2 {
  %5 = getelementptr inbounds nuw i8, ptr %0, i64 72
  %6 = load ptr, ptr %5, align 8, !tbaa !4
  %7 = getelementptr inbounds nuw i8, ptr %6, i64 8
  %8 = load float, ptr %7, align 8, !tbaa !68
  %9 = getelementptr inbounds nuw i8, ptr %6, i64 12
  %10 = load float, ptr %9, align 4, !tbaa !69
  %11 = getelementptr inbounds nuw i8, ptr %6, i64 36
  %12 = load i32, ptr %11, align 4, !tbaa !30
  %13 = icmp sgt i32 %12, 0
  br i1 %13, label %.lr.ph67, label %._crit_edge

.lr.ph67:                                         ; preds = %4
  %14 = getelementptr inbounds nuw i8, ptr %1, i64 8
  %15 = getelementptr inbounds nuw i8, ptr %1, i64 16
  %16 = add nsw i32 %2, 1
  %17 = getelementptr inbounds nuw i8, ptr %6, i64 16
  %18 = getelementptr inbounds nuw i8, ptr %6, i64 20
  br label %19

._crit_edge:                                      ; preds = %.loopexit, %4
  ret i32 0

19:                                               ; preds = %.lr.ph67, %.loopexit
  %20 = phi i32 [ %12, %.lr.ph67 ], [ %80, %.loopexit ]
  %indvars.iv = phi i64 [ 0, %.lr.ph67 ], [ %indvars.iv.next, %.loopexit ]
  %21 = load ptr, ptr %1, align 8, !tbaa !58
  %22 = getelementptr inbounds nuw i8, ptr %21, i64 64
  %23 = getelementptr inbounds nuw [8 x i32], ptr %22, i64 0, i64 %indvars.iv
  %24 = load i32, ptr %23, align 4, !tbaa !70
  %25 = sext i32 %24 to i64
  %26 = load ptr, ptr %14, align 8, !tbaa !60
  %27 = getelementptr inbounds nuw i8, ptr %26, i64 64
  %28 = getelementptr inbounds nuw [8 x i32], ptr %27, i64 0, i64 %indvars.iv
  %29 = load i32, ptr %28, align 4, !tbaa !70
  %30 = sext i32 %29 to i64
  %31 = load ptr, ptr %15, align 8, !tbaa !61
  %32 = getelementptr inbounds nuw i8, ptr %31, i64 64
  %33 = getelementptr inbounds nuw [8 x i32], ptr %32, i64 0, i64 %indvars.iv
  %34 = load i32, ptr %33, align 4, !tbaa !70
  %35 = sext i32 %34 to i64
  %36 = getelementptr inbounds nuw i8, ptr %21, i64 104
  %37 = load i32, ptr %36, align 8, !tbaa !71
  %38 = getelementptr inbounds nuw i8, ptr %21, i64 108
  %39 = load i32, ptr %38, align 4, !tbaa !72
  %40 = mul nsw i32 %39, %2
  %41 = sdiv i32 %40, %3
  %42 = mul nsw i32 %39, %16
  %43 = sdiv i32 %42, %3
  %44 = sext i32 %41 to i64
  %45 = getelementptr inbounds nuw [8 x ptr], ptr %26, i64 0, i64 %indvars.iv
  %46 = load ptr, ptr %45, align 8, !tbaa !73
  %47 = mul nsw i64 %44, %30
  %48 = getelementptr inbounds i8, ptr %46, i64 %47
  %49 = getelementptr inbounds nuw [8 x ptr], ptr %31, i64 0, i64 %indvars.iv
  %50 = load ptr, ptr %49, align 8, !tbaa !73
  %51 = mul nsw i64 %44, %35
  %52 = getelementptr inbounds i8, ptr %50, i64 %51
  %53 = trunc nuw nsw i64 %indvars.iv to i32
  %54 = shl nuw i32 1, %53
  %55 = load i32, ptr %17, align 8, !tbaa !74
  %56 = and i32 %55, %54
  %.not = icmp eq i32 %56, 0
  br i1 %.not, label %57, label %61

57:                                               ; preds = %19
  %58 = getelementptr inbounds nuw [4 x i32], ptr %18, i64 0, i64 %indvars.iv
  %59 = load i32, ptr %58, align 4, !tbaa !70
  %60 = sub nsw i32 %43, %41
  tail call void @av_image_copy_plane(ptr noundef %52, i32 noundef %34, ptr noundef %48, i32 noundef %29, i32 noundef %59, i32 noundef %60) #7
  %.pre = load i32, ptr %11, align 4, !tbaa !30
  br label %.loopexit

61:                                               ; preds = %19
  %62 = icmp slt i32 %41, %43
  br i1 %62, label %.lr.ph, label %.loopexit

.lr.ph:                                           ; preds = %61
  %63 = icmp sgt i32 %37, 0
  %wide.trip.count.i = zext nneg i32 %37 to i64
  br i1 %63, label %.lr.ph.preheader.i.us.preheader, label %.loopexit

.lr.ph.preheader.i.us.preheader:                  ; preds = %.lr.ph
  %64 = getelementptr inbounds nuw [8 x ptr], ptr %21, i64 0, i64 %indvars.iv
  %65 = load ptr, ptr %64, align 8, !tbaa !73
  %66 = mul nsw i64 %44, %25
  %67 = getelementptr inbounds i8, ptr %65, i64 %66
  br label %.lr.ph.preheader.i.us

.lr.ph.preheader.i.us:                            ; preds = %.lr.ph.preheader.i.us.preheader, %multiply.exit.loopexit.us
  %.065.us = phi i32 [ %79, %multiply.exit.loopexit.us ], [ %41, %.lr.ph.preheader.i.us.preheader ]
  %.05864.us = phi ptr [ %76, %multiply.exit.loopexit.us ], [ %52, %.lr.ph.preheader.i.us.preheader ]
  %.05963.us = phi ptr [ %78, %multiply.exit.loopexit.us ], [ %48, %.lr.ph.preheader.i.us.preheader ]
  %.06062.us = phi ptr [ %77, %multiply.exit.loopexit.us ], [ %67, %.lr.ph.preheader.i.us.preheader ]
  br label %.lr.ph.i.us

.lr.ph.i.us:                                      ; preds = %.lr.ph.i.us, %.lr.ph.preheader.i.us
  %indvars.iv.i.us = phi i64 [ 0, %.lr.ph.preheader.i.us ], [ %indvars.iv.next.i.us, %.lr.ph.i.us ]
  %68 = getelementptr inbounds nuw float, ptr %.05963.us, i64 %indvars.iv.i.us
  %69 = load float, ptr %68, align 4, !tbaa !75
  %70 = fadd nsz float %8, %69
  %71 = fmul nsz float %10, %70
  %72 = getelementptr inbounds nuw float, ptr %.06062.us, i64 %indvars.iv.i.us
  %73 = load float, ptr %72, align 4, !tbaa !75
  %74 = fmul nsz float %73, %71
  %75 = getelementptr inbounds nuw float, ptr %.05864.us, i64 %indvars.iv.i.us
  store float %74, ptr %75, align 4, !tbaa !75
  %indvars.iv.next.i.us = add nuw nsw i64 %indvars.iv.i.us, 1
  %exitcond.not.i.us = icmp eq i64 %indvars.iv.next.i.us, %wide.trip.count.i
  br i1 %exitcond.not.i.us, label %multiply.exit.loopexit.us, label %.lr.ph.i.us, !llvm.loop !76

multiply.exit.loopexit.us:                        ; preds = %.lr.ph.i.us
  %76 = getelementptr inbounds i8, ptr %.05864.us, i64 %35
  %77 = getelementptr inbounds i8, ptr %.06062.us, i64 %25
  %78 = getelementptr inbounds i8, ptr %.05963.us, i64 %30
  %79 = add nsw i32 %.065.us, 1
  %exitcond.not = icmp eq i32 %79, %43
  br i1 %exitcond.not, label %.loopexit, label %.lr.ph.preheader.i.us, !llvm.loop !78

.loopexit:                                        ; preds = %multiply.exit.loopexit.us, %.lr.ph, %61, %57
  %80 = phi i32 [ %20, %61 ], [ %.pre, %57 ], [ %20, %.lr.ph ], [ %20, %multiply.exit.loopexit.us ]
  %indvars.iv.next = add nuw nsw i64 %indvars.iv, 1
  %81 = sext i32 %80 to i64
  %82 = icmp slt i64 %indvars.iv.next, %81
  br i1 %82, label %19, label %._crit_edge, !llvm.loop !79
}